(lp0
(lp1
F10.1517834
aF76.392958
aS'transport'
p2
aS'KOCHI'
p3
aa(lp4
F10.155222
aF76.39230510000002
ag2
ag3
aa(lp5
F9.978994
aF76.283569
ag2
ag3
aa(lp6
F10.2452826
aF76.4955336
ag2
ag3
aa(lp7
F10.1552966
aF76.3917385
ag2
ag3
aa(lp8
F10.1535521
aF76.3890827
ag2
ag3
aa(lp9
F9.997226800000002
aF76.3510917
ag2
ag3
aa(lp10
F9.785372199999998
aF76.85020410000001
ag2
ag3
aa(lp11
F10.0081549
aF76.3174818
ag2
ag3
aa(lp12
F9.995152
aF76.3018063
ag2
ag3
aa(lp13
F9.9868858
aF76.3004717
ag2
ag3
aa(lp14
F9.988283
aF76.28793890000001
ag2
ag3
aa(lp15
F9.9536193
aF76.28031450000002
ag2
ag3
aa(lp16
F9.982608500000001
aF76.27407
ag2
ag3
aa(lp17
F10.0269156
aF76.3917388
aS'alts'
p18
ag3
aa(lp19
F10.2950961
aF76.47685969999999
ag18
ag3
aa(lp20
F10.3069709
aF76.39900089999999
ag18
ag3
aa(lp21
F10.212894
aF76.380601
ag18
ag3
aa(lp22
F10.212894
aF76.380601
ag18
ag3
aa(lp23
F10.212894
aF76.380601
ag18
ag3
aa(lp24
F10.306443
aF76.399231
ag18
ag3
aa(lp25
F10.212894
aF76.380601
ag18
ag3
aa(lp26
F9.9763583
aF76.31812020000001
ag18
ag3
aa(lp27
F10.026972
aF77.035508
ag18
ag3
aa(lp28
F9.884746999999999
aF76.293804
ag18
ag3
aa(lp29
F9.987457
aF76.6708106
ag18
ag3
aa(lp30
F9.990004800000001
aF76.5395486
ag18
ag3
aa(lp31
F9.7593541
aF76.4779544
ag18
ag3
aa(lp32
F9.744301
aF76.47151699999999
ag18
ag3
aa(lp33
F10.2741845
aF76.9839296
ag18
ag3
aa(lp34
F10.0533966
aF77.0589413
ag18
ag3
aa(lp35
F9.9872733
aF76.27157989999999
ag18
ag3
aa(lp36
F9.647597499999998
aF76.7277512
ag18
ag3
aa(lp37
F9.670043
aF76.7927277
ag18
ag3
aa(lp38
F9.989027199999999
aF76.304057
ag18
ag3
aa(lp39
F10.0694463
aF76.33094489999999
ag18
ag3
aa(lp40
F10.0669076
aF76.5166321
ag18
ag3
aa(lp41
F10.1131379
aF76.4797049
ag18
ag3
aa(lp42
F10.171568
aF76.427313
ag18
ag3
aa(lp43
F10.000406
aF76.310176
ag18
ag3
aa(lp44
F10.017963
aF76.303099
ag18
ag3
aa(lp45
F9.961473199999999
aF76.3058501
ag18
ag3
aa(lp46
F9.961439900000002
aF76.3058025
ag18
ag3
aa(lp47
F10.0524507
aF76.2929905
ag18
ag3
aa(lp48
F9.966058000000002
aF76.297283
ag18
ag3
aa(lp49
F9.976393000000002
aF76.294457
ag18
ag3
aa(lp50
F10.0052712
aF76.2836931
ag18
ag3
aa(lp51
F9.9488714
aF76.25225689999999
ag18
ag3
aa(lp52
F9.982829299999999
aF76.5777607
ag18
ag3
aa(lp53
F9.8991178
aF76.7197126
ag18
ag3
aa(lp54
F9.8936291
aF76.7151311
ag18
ag3
aa(lp55
F10.1708595
aF76.4461972
ag18
ag3
aa(lp56
F10.0371812
aF76.41000400000001
ag18
ag3
aa(lp57
F10.0365802
aF76.408473
ag18
ag3
aa(lp58
F10.1257383
aF76.33231839999999
aS'access point'
p59
ag3
aa(lp60
F9.8998938
aF76.71428039999999
ag59
ag3
aa(lp61
F10.0284309
aF76.30845699999999
ag59
ag3
aa(lp62
F9.8766191
aF76.48687559999999
ag59
ag3
aa(lp63
F9.859814
aF76.59391900000001
ag59
ag3
aa(lp64
F9.900635900000001
aF76.7125798
ag59
ag3
aa(lp65
F10.105558
aF76.352925
ag59
ag3
aa(lp66
F10.000406
aF76.310175
ag59
ag3
aa(lp67
F9.992437199999998
aF76.29261439999999
ag59
ag3
aa(lp68
F9.9499297
aF76.2534129
ag59
ag3
aa(lp69
F9.883640300000001
aF76.64172599999999
ag59
ag3
aa(lp70
F9.9658353
aF76.3059912
ag59
ag3
aa(lp71
F9.945295500000002
aF76.3505459
ag59
ag3
aa(lp72
F9.937768199999999
aF76.34636239999999
ag59
ag3
aa(lp73
F9.973042699999999
aF76.2852145
ag59
ag3
aa(lp74
F10.1106984
aF76.3504438
ag59
ag3
aa(lp75
F9.9704203
aF76.31743709999999
ag59
ag3
aa(lp76
F10.1899693
aF76.39043269999999
ag59
ag3
aa(lp77
F9.9793539
aF76.4759682
ag59
ag3
aa(lp78
F10.0144081
aF76.31184449999999
ag59
ag3
aa(lp79
F10.064519
aF76.620991
ag2
ag3
aa(lp80
F10.2831616
aF76.4197665
ag2
ag3
aa(lp81
F9.7148849
aF76.6884259
ag2
ag3
aa(lp82
F9.7148685
aF76.6883723
ag2
ag3
aa(lp83
F9.9686837
aF76.3219088
ag2
ag3
aa(lp84
F9.667801999999998
aF76.555944
ag2
ag3
aa(lp85
F10.0480422
aF76.6414753
ag2
ag3
aa(lp86
F10.0474374
aF76.6416496
ag2
ag3
aa(lp87
F10.1148094
aF76.610316
ag2
ag3
aa(lp88
F10.1017227
aF76.541479
ag2
ag3
aa(lp89
F10.0153031
aF76.52470389999999
ag2
ag3
aa(lp90
F10.0154339
aF76.5244156
ag2
ag3
aa(lp91
F10.0152371
aF76.524307
ag2
ag3
aa(lp92
F10.0970699
aF76.4743173
ag2
ag3
aa(lp93
F10.0972849
aF76.4743453
ag2
ag3
aa(lp94
F10.0914822
aF76.44223269999999
ag2
ag3
aa(lp95
F10.0915007
aF76.4419779
ag2
ag3
aa(lp96
F10.1855596
aF76.47528559999999
ag2
ag3
aa(lp97
F10.0883027
aF76.4263648
ag2
ag3
aa(lp98
F10.0882843
aF76.4260322
ag2
ag3
aa(lp99
F10.1078101
aF76.35724979999999
ag18
ag3
aa(lp100
F9.9358262
aF76.35212720000001
ag59
ag3
aa(lp101
F9.974309600000002
aF76.2956158
ag59
ag3
aa(lp102
F9.958941000000001
aF76.2578529
ag59
ag3
aa(lp103
F10.0571003
aF76.6171846
ag59
ag3
aa(lp104
F10.0570577
aF76.6171325
ag59
ag3
aa(lp105
F9.9649402
aF76.67111899999999
ag59
ag3
aa(lp106
F9.9795845
aF76.58267219999999
ag59
ag3
aa(lp107
F9.9795898
aF76.5827027
ag59
ag3
aa(lp108
F9.979657699999999
aF76.58261949999999
ag59
ag3
aa(lp109
F9.8983366
aF76.70373479999999
ag59
ag3
aa(lp110
F10.1173073
aF76.49340860000001
ag59
ag3
aa(lp111
F9.864183299999999
aF76.5915723
ag59
ag3
aa(lp112
F9.871790599999999
aF76.4897218
ag59
ag3
aa(lp113
F10.1556771
aF76.4032284
ag59
ag3
aa(lp114
F9.9122817
aF76.4068229
ag59
ag3
aa(lp115
F10.007418
aF76.96740989999999
ag59
ag3
aa(lp116
F10.1076272
aF76.3508677
ag59
ag3
aa(lp117
F9.7893248
aF76.85304789999999
ag59
ag3
aa(lp118
F10.0194408
aF76.33412899999999
ag59
ag3
aa(lp119
F10.0194566
aF76.3341236
ag59
ag3
aa(lp120
F10.0156373
aF76.2764467
ag59
ag3
aa(lp121
F9.9525729
aF76.338357
ag59
ag3
aa(lp122
F9.9613907
aF76.3701045
ag59
ag3
aa(lp123
F9.9449177
aF76.3722069
ag59
ag3
aa(lp124
F10.0107468
aF76.3117915
ag59
ag3
aa(lp125
F9.9523263
aF76.33766949999999
ag59
ag3
aa(lp126
F9.9017914
aF76.7255776
ag59
ag3
aa(lp127
F9.9948011
aF76.3203381
ag59
ag3
aa(lp128
F9.8739379
aF76.4860966
ag59
ag3
aa(lp129
F9.885087
aF76.64727690000001
ag59
ag3
aa(lp130
F10.0657801
aF76.4945931
ag59
ag3
aa(lp131
F9.8871282
aF76.64415919999999
ag59
ag3
aa(lp132
F10.111007
aF76.530515
ag59
ag3
aa(lp133
F10.0681019
aF76.6142966
ag59
ag3
aa(lp134
F9.9001205
aF76.7123848
ag59
ag3
aa(lp135
F10.0723537
aF76.5978585
ag59
ag3
aa(lp136
F10.0688189
aF76.613765
ag59
ag3
aa(lp137
F10.0587154
aF76.6467663
ag59
ag3
aa(lp138
F10.1126729
aF76.51460469999999
ag59
ag3
aa(lp139
F10.0606706
aF76.6172866
ag59
ag3
aa(lp140
F10.1878006
aF76.32707409999999
ag18
ag3
aa(lp141
F9.933013100000002
aF76.3059687
ag18
ag3
aa(lp142
F9.8796384
aF76.3870221
ag18
ag3
aa(lp143
F9.8573495
aF76.4484003
ag18
ag3
aa(lp144
F9.9450109
aF76.342111
ag18
ag3
aa(lp145
F9.9270062
aF76.3696087
ag18
ag3
aa(lp146
F9.7281252
aF76.5697208
ag18
ag3
aa(lp147
F10.099084
aF76.57396899999999
ag18
ag3
aa(lp148
F9.673676000000002
aF76.5609661
ag18
ag3
aa(lp149
F9.770175899999998
aF76.4824659
ag18
ag3
aa(lp150
F10.2118022
aF76.321131
ag18
ag3
aa(lp151
F10.1085974
aF76.5004926
ag18
ag3
aa(lp152
F9.916424299999997
aF76.4771658
ag18
ag3
aa(lp153
F10.0395404
aF76.62356849999999
ag18
ag3
aa(lp154
F9.933124099999999
aF76.3913494
ag18
ag3
aa(lp155
F10.1672428
aF76.444333
ag18
ag3
aa(lp156
F10.1784931
aF76.47168719999999
ag18
ag3
aa(lp157
F9.971259
aF76.60955400000002
ag18
ag3
aa(lp158
F9.896473
aF76.36281
ag18
ag3
aa(lp159
F10.0659171
aF76.5464946
ag18
ag3
aa(lp160
F9.976606600000002
aF76.28243189999999
ag18
ag3
aa(lp161
F10.0227808
aF76.3438562
ag18
ag3
aa(lp162
F10.1568015
aF76.3388121
ag18
ag3
aa(lp163
F10.0813286
aF76.5747856
ag18
ag3
aa(lp164
F10.1226579
aF76.5575168
ag18
ag3
aa(lp165
F9.935914699999998
aF76.75692289999999
ag18
ag3
aa(lp166
F9.8884893
aF76.5903818
ag18
ag3
aa(lp167
F10.0078555
aF76.4861415
ag18
ag3
aa(lp168
F9.943066199999999
aF76.4820414
ag18
ag3
aa(lp169
F9.9556885
aF76.427859
ag18
ag3
aa(lp170
F9.8693433
aF76.4556009
ag18
ag3
aa(lp171
F10.0032703
aF76.3114804
ag18
ag3
aa(lp172
F9.9732305
aF76.3353467
ag18
ag3
aa(lp173
F10.025321
aF76.365723
ag18
ag3
aa(lp174
F9.7524923
aF76.6615468
ag18
ag3
aa(lp175
F10.1096249
aF76.35579779999999
ag18
ag3
aa(lp176
F9.812729099999999
aF76.4646171
ag18
ag3
aa(lp177
F10.0445842
aF76.32510909999999
ag18
ag3
aa(lp178
F9.727174499999999
aF76.7266515
ag18
ag3
aa(lp179
F9.768937999999999
aF76.485226
ag18
ag3
aa(lp180
F10.122921
aF76.3386136
ag18
ag3
aa(lp181
F10.1198356
aF76.36065339999999
ag18
ag3
aa(lp182
F9.990018
aF76.58347499999999
ag18
ag3
aa(lp183
F9.991939700000001
aF76.4041024
ag18
ag3
aa(lp184
F10.1229685
aF76.3460102
ag18
ag3
aa(lp185
F10.050847
aF76.3340673
ag18
ag3
aa(lp186
F9.8499731
aF76.3277078
ag18
ag3
aa(lp187
F9.9913308
aF76.2830517
ag18
ag3
aa(lp188
F9.9152805
aF76.2679284
ag18
ag3
aa(lp189
F9.8286196
aF76.3107562
ag18
ag3
aa(lp190
F9.968473099999999
aF76.2492141
ag18
ag3
aa(lp191
F9.9675092
aF76.24481159999999
ag18
ag3
aa(lp192
F9.9003967
aF76.7295671
ag18
ag3
aa(lp193
F10.0427144
aF76.6669177
ag18
ag3
aa(lp194
F10.0571283
aF76.6846588
ag18
ag3
aa(lp195
F10.0371687
aF76.6597331
ag18
ag3
aa(lp196
F10.0328454
aF76.6680885
ag18
ag3
aa(lp197
F10.0343747
aF76.67669599999999
ag18
ag3
aa(lp198
F10.0353806
aF76.6832804
ag18
ag3
aa(lp199
F10.02926
aF76.6704414
ag18
ag3
aa(lp200
F10.0143187
aF76.31231989999999
ag18
ag3
aa(lp201
F9.977553100000002
aF76.31626899999999
ag18
ag3
aa(lp202
F9.9785726
aF76.28262219999999
ag18
ag3
aa(lp203
F10.1049817
aF76.358935
ag18
ag3
aa(lp204
F9.9817548
aF76.2826031
ag18
ag3
aa(lp205
F9.979847999999999
aF76.573807
ag18
ag3
aa(lp206
F9.9028494
aF76.715307
ag18
ag3
aa(lp207
F9.9798528
aF76.5836881
ag18
ag3
aa(lp208
F10.1072081
aF76.3603007
ag18
ag3
aa(lp209
F9.97561
aF76.57939999999999
ag18
ag3
aa(lp210
F10.0630391
aF76.6202275
ag18
ag3
aa(lp211
F10.1069503
aF76.4736602
ag18
ag3
aa(lp212
F9.989577399999998
aF76.57843729999999
ag18
ag3
aa(lp213
F10.1135028
aF76.4791475
ag18
ag3
aa(lp214
F9.9849844
aF76.27756169999999
ag18
ag3
aa(lp215
F9.854162299999997
aF76.5934205
ag18
ag3
aa(lp216
F10.0630989
aF76.6200501
ag18
ag3
aa(lp217
F10.0630643
aF76.6200015
ag18
ag3
aa(lp218
F9.958274500000002
aF76.2593488
ag18
ag3
aa(lp219
F9.933068999999998
aF76.2991547
ag18
ag3
aa(lp220
F9.952638600000002
aF76.3639139
ag18
ag3
aa(lp221
F9.771841199999999
aF76.5715903
ag18
ag3
aa(lp222
F9.965921999999999
aF76.239671
ag18
ag3
aa(lp223
F10.0379498
aF76.3147426
ag18
ag3
aa(lp224
F9.7027886
aF76.7259085
ag18
ag3
aa(lp225
F9.7073009
aF76.7556505
ag18
ag3
aa(lp226
F10.0875211
aF77.0604604
ag18
ag3
aa(lp227
F9.965456
aF76.28624789999999
ag18
ag3
aa(lp228
F9.9882808
aF76.27221750000001
ag18
ag3
aa(lp229
F10.01486
aF76.303467
ag18
ag3
aa(lp230
F9.955871199999999
aF76.2600933
ag18
ag3
aa(lp231
F9.968958899999999
aF76.2609208
ag18
ag3
aa(lp232
F9.958291299999999
aF76.25940760000002
ag18
ag3
aa(lp233
F9.962160700000002
aF76.25741880000001
ag18
ag3
aa(lp234
F9.968579799999999
aF76.24647039999999
ag18
ag3
aa(lp235
F9.9590114
aF76.255724
ag18
ag3
aa(lp236
F9.958549999999999
aF76.2390853
ag18
ag3
aa(lp237
F9.6484717
aF76.5170342
ag18
ag3
aa(lp238
F10.1335301
aF76.4664209
ag18
ag3
aa(lp239
F9.848537999999998
aF76.6852373
ag18
ag3
aa(lp240
F9.9826619
aF76.5702709
ag18
ag3
aa(lp241
F9.938791799999999
aF76.6438946
ag18
ag3
aa(lp242
F10.0595823
aF76.6345249
ag18
ag3
aa(lp243
F10.0563033
aF76.6169223
ag18
ag3
aa(lp244
F10.101416
aF76.3478576
ag18
ag3
aa(lp245
F9.741636599999998
aF76.6117292
ag18
ag3
aa(lp246
F10.0791076
aF76.3879391
ag18
ag3
aa(lp247
F9.7662138
aF76.701092
ag18
ag3
aa(lp248
F10.1925013
aF76.3860984
ag18
ag3
aa(lp249
F9.991762
aF76.29324199999999
ag18
ag3
aa(lp250
F10.1685233
aF76.3485804
ag18
ag3
aa(lp251
F10.0067588
aF76.30648339999999
ag18
ag3
aa(lp252
F9.9762619
aF76.2772608
ag18
ag3
aa(lp253
F9.751449400000002
aF76.3928703
ag18
ag3
aa(lp254
F10.0647412
aF76.65514619999999
ag18
ag3
aa(lp255
F10.0809046
aF76.66794999999999
ag18
ag3
aa(lp256
F10.0594612
aF76.6357434
ag18
ag3
aa(lp257
F10.0306106
aF76.63832099999999
ag18
ag3
aa(lp258
F10.09571
aF76.71692999999999
ag18
ag3
aa(lp259
F10.3928581
aF76.775622
ag18
ag3
aa(lp260
F10.040848
aF76.975606
ag18
ag3
aa(lp261
F9.9795041
aF76.4723777
ag18
ag3
aa(lp262
F9.896935899999999
aF76.7112345
ag18
ag3
aa(lp263
F10.0640912
aF76.5207041
ag18
ag3
aa(lp264
F10.0382608
aF76.6904309
ag18
ag3
aa(lp265
F10.1116926
aF76.68937679999999
ag18
ag3
aa(lp266
F10.1681253
aF76.7611896
ag18
ag3
aa(lp267
F10.1852296
aF76.5543222
ag18
ag3
aa(lp268
F10.166505
aF76.437844
ag18
ag3
aa(lp269
F10.088022
aF76.365344
ag18
ag3
aa(lp270
F10.0145989
aF76.94834709999999
ag18
ag3
aa(lp271
F10.106401
aF76.357244
ag18
ag3
aa(lp272
F10.2087295
aF76.4167342
ag18
ag3
aa(lp273
F9.780035000000002
aF76.778217
ag18
ag3
aa(lp274
F10.0084462
aF76.3627468
ag18
ag3
aa(lp275
F10.0558428
aF76.3542033
ag18
ag3
aa(lp276
F9.958261799999999
aF76.3602791
ag18
ag3
aa(lp277
F10.025134
aF76.99476
ag18
ag3
aa(lp278
F10.3000146
aF76.3346493
ag59
ag3
aa(lp279
F10.100339
aF76.3569653
ag59
ag3
aa(lp280
F9.9806451
aF76.5819045
ag59
ag3
aa(lp281
F10.0645088
aF76.6254045
ag59
ag3
aa(lp282
F10.1708849
aF76.4471298
ag59
ag3
aa(lp283
F10.0207878
aF76.3451676
ag59
ag3
aa(lp284
F9.969099499999999
aF76.6707739
ag59
ag3
aa(lp285
F9.9139138
aF76.78762520000001
ag59
ag3
aa(lp286
F9.853226300000001
aF76.6867935
ag59
ag3
aa(lp287
F9.897210099999997
aF76.7131734
ag59
ag3
aa(lp288
F10.0507406
aF76.7139006
ag59
ag3
aa(lp289
F10.151093
aF76.7371244
ag59
ag3
aa(lp290
F10.1107187
aF76.51851599999999
ag59
ag3
aa(lp291
F10.1950535
aF76.3856589
ag59
ag3
aa(lp292
F9.9866671
aF76.5777935
ag59
ag3
aa(lp293
F9.865600800000001
aF76.48950900000001
ag59
ag3
aa(lp294
F9.820053499999998
aF76.8035882
ag59
ag3
aa(lp295
F9.808147499999997
aF76.77863669999999
ag59
ag3
aa(lp296
F10.1600515
aF76.39279429999999
ag59
ag3
aa(lp297
F10.2790592
aF76.8531632
ag59
ag3
aa(lp298
F9.933721
aF76.316442
aS'food'
p299
ag3
aa(lp300
F9.9666071
aF76.2417526
ag299
ag3
aa(lp301
F9.9592898
aF76.2691629
ag299
ag3
aa(lp302
F9.820147
aF76.384224
ag299
ag3
aa(lp303
F9.9634774
aF76.3002126
ag299
ag3
aa(lp304
F9.9645502
aF76.23949259999999
ag299
ag3
aa(lp305
F9.943833
aF76.335281
ag299
ag3
aa(lp306
F9.9678243
aF76.2833862
ag299
ag3
aa(lp307
F9.893988799999997
aF76.7068171
ag299
ag3
aa(lp308
F9.9621665
aF76.2889684
ag299
ag3
aa(lp309
F9.966787000000002
aF76.2424
ag299
ag3
aa(lp310
F9.989298500000002
aF76.2855163
ag299
ag3
aa(lp311
F10.085893
aF77.058526
ag299
ag3
aa(lp312
F10.1630096
aF76.39847329999999
ag299
ag3
aa(lp313
F9.964108699999999
aF76.23983729999999
ag299
ag3
aa(lp314
F10.3081855
aF76.3374207
ag299
ag3
aa(lp315
F9.9705432
aF76.285354
ag299
ag3
aa(lp316
F9.9775183
aF76.3168468
ag299
ag3
aa(lp317
F9.6861435
aF76.78081569999999
ag299
ag3
aa(lp318
F9.908173699999999
aF76.3617691
ag299
ag3
aa(lp319
F9.977673800000002
aF76.3167607
ag59
ag3
aa(lp320
F10.1054169
aF76.3517001
ag59
ag3
aa(lp321
F10.1934952
aF76.3870677
ag59
ag3
aa(lp322
F9.896867599999998
aF76.7099544
ag59
ag3
aa(lp323
F10.0146468
aF76.95389089999999
ag59
ag3
aa(lp324
F9.854175499999998
aF76.5933853
ag59
ag3
aa(lp325
F10.1069503
aF76.47366029999999
ag59
ag3
aa(lp326
F9.977761
aF76.3159677
ag59
ag3
aa(lp327
F9.977374
aF76.27691600000001
ag59
ag3
aa(lp328
F9.9752592
aF76.2808824
ag59
ag3
aa(lp329
F9.8956392
aF76.7073449
ag59
ag3
aa(lp330
F9.9918987
aF76.579694
ag59
ag3
aa(lp331
F10.11495
aF76.4790345
ag59
ag3
aa(lp332
F10.113278
aF76.478856
ag59
ag3
aa(lp333
F9.8942216
aF76.71639739999999
ag59
ag3
aa(lp334
F9.777471399999998
aF76.7026699
ag59
ag3
aa(lp335
F10.0639027
aF76.627572
ag59
ag3
aa(lp336
F10.0658346
aF76.6214177
ag59
ag3
aa(lp337
F10.007411
aF76.7103717
ag59
ag3
aa(lp338
F10.076748
aF76.5922054
ag59
ag3
aa(lp339
F9.9592898
aF76.2691629
ag18
ag3
aa(lp340
F9.820147
aF76.384224
ag18
ag3
aa(lp341
F10.0210424
aF76.3444347
ag18
ag3
aa(lp342
F9.992011999999999
aF76.293729
ag18
ag3
aa(lp343
F9.965299999999997
aF76.300563
ag18
ag3
aa(lp344
F9.971687900000001
aF76.3174779
ag18
ag3
aa(lp345
F9.931197999999998
aF76.26724999999999
ag18
ag3
aa(lp346
F9.946658
aF76.352228
ag18
ag3
aa(lp347
F10.2901975
aF76.5496445
ag18
ag3
aa(lp348
F9.990335000000002
aF76.5853661
ag18
ag3
aa(lp349
F9.975429699999998
aF76.5849987
ag18
ag3
aa(lp350
F9.951816
aF76.335711
ag18
ag3
aa(lp351
F10.001357
aF76.313856
ag18
ag3
aa(lp352
F10.129649
aF76.468942
ag18
ag3
aa(lp353
F10.2073598
aF76.4534165
ag18
ag3
aa(lp354
F9.9987
aF76.302708
ag18
ag3
aa(lp355
F10.1196253
aF76.3841223
ag18
ag3
aa(lp356
F10.151786
aF76.392961
ag18
ag3
aa(lp357
F10.160835
aF76.39070699999999
ag18
ag3
aa(lp358
F10.0350525
aF76.335807
ag18
ag3
aa(lp359
F9.8888339
aF76.5665665
ag18
ag3
aa(lp360
F9.997215800000001
aF76.300861
ag18
ag3
aa(lp361
F10.0210704
aF76.32367909999999
ag18
ag3
aa(lp362
F9.7009239
aF76.6663591
ag18
ag3
aa(lp363
F9.9174132
aF76.2932519
ag18
ag3
aa(lp364
F9.9313085
aF76.2583215
ag18
ag3
aa(lp365
F10.02802
aF76.6576868
ag18
ag3
aa(lp366
F10.063636
aF76.6251312
ag18
ag3
aa(lp367
F10.0555652
aF76.6193182
ag18
ag3
aa(lp368
F10.0554754
aF76.61923569999999
ag18
ag3
aa(lp369
F9.998843899999999
aF76.63664159999999
ag18
ag3
aa(lp370
F9.991439999999999
aF76.58059999999999
ag18
ag3
aa(lp371
F9.982213100000001
aF76.5806538
ag18
ag3
aa(lp372
F9.9792408
aF76.57646799999999
ag18
ag3
aa(lp373
F10.1822412
aF76.7126584
ag18
ag3
aa(lp374
F9.974969399999997
aF76.78194340000002
ag18
ag3
aa(lp375
F9.927846400000002
aF76.6075335
ag18
ag3
aa(lp376
F9.9801781
aF76.5396653
ag18
ag3
aa(lp377
F9.9046877
aF76.7286122
ag18
ag3
aa(lp378
F9.896665800000001
aF76.7114246
ag18
ag3
aa(lp379
F10.01398
aF76.332082
ag2
ag3
aa(lp380
F10.095128
aF76.32230299999999
ag2
ag3
aa(lp381
F9.965985999999997
aF76.302937
ag2
ag3
aa(lp382
F9.9670291
aF76.24296199999999
ag2
ag3
aa(lp383
F10.0295842
aF76.6659689
ag2
ag3
aa(lp384
F10.0632956
aF76.6291693
ag2
ag3
aa(lp385
F10.0648698
aF76.6239509
ag2
ag3
aa(lp386
F10.0000855
aF76.7421578
ag2
ag3
aa(lp387
F9.988567800000002
aF76.57852249999999
ag2
ag3
aa(lp388
F9.9912859
aF76.7890772
ag2
ag3
aa(lp389
F9.991416999999998
aF76.7898266
ag2
ag3
aa(lp390
F9.931602999999999
aF76.599098
ag2
ag3
aa(lp391
F10.1404171
aF76.53700990000002
ag2
ag3
aa(lp392
F10.0596531
aF76.5085842
ag2
ag3
aa(lp393
F9.8997899
aF76.7141517
ag2
ag3
aa(lp394
F9.8986603
aF76.71425570000001
ag2
ag3
aa(lp395
F9.89714
aF76.711491
ag2
ag3
aa(lp396
F9.897126199999999
aF76.713804
ag2
ag3
aa(lp397
F9.896624100000002
aF76.7166036
ag2
ag3
aa(lp398
F9.91025
aF76.56411109999999
ag2
ag3
aa(lp399
F9.7560075
aF76.49234210000002
ag2
ag3
aa(lp400
F9.7348564
aF76.51093089999999
ag2
ag3
aa(lp401
F9.9782884
aF76.2795586
ag2
ag3
aa(lp402
F9.676544200000002
aF76.5453912
ag2
ag3
aa(lp403
F9.9019424
aF76.69622989999999
ag2
ag3
aa(lp404
F9.782278
aF76.58656359999999
ag2
ag3
aa(lp405
F10.1410552
aF76.376808
ag2
ag3
aa(lp406
F10.1329334
aF76.3721949
ag2
ag3
aa(lp407
F9.829343699999999
aF76.4552844
ag2
ag3
aa(lp408
F10.1080303
aF76.3563121
ag2
ag3
aa(lp409
F10.0921661
aF76.353225
ag2
ag3
aa(lp410
F10.1838111
aF76.3776558
ag2
ag3
aa(lp411
F9.897863099999999
aF76.3907227
ag2
ag3
aa(lp412
F9.9265276
aF76.3746598
ag2
ag3
aa(lp413
F9.862102000000002
aF76.410733
ag2
ag3
aa(lp414
F9.949812500000002
aF76.3525183
ag2
ag3
aa(lp415
F10.062361
aF76.327298
ag2
ag3
aa(lp416
F10.226031
aF76.37346699999999
ag2
ag3
aa(lp417
F9.777704
aF76.47436019999999
ag2
ag3
aa(lp418
F10.1893416
aF76.32380859999999
ag2
ag3
aa(lp419
F9.982307999999998
aF76.308422
ag2
ag3
aa(lp420
F9.963566499999999
aF76.2872908
ag2
ag3
aa(lp421
F10.0059567
aF76.3053212
ag2
ag3
aa(lp422
F10.1145604
aF76.4781385
ag2
ag3
aa(lp423
F10.1630096
aF76.39847329999999
ag2
ag3
aa(lp424
F9.970171
aF76.295199
ag2
ag3
aa(lp425
F10.050226
aF76.293354
ag2
ag3
aa(lp426
F10.075906
aF76.336559
ag2
ag3
aa(lp427
F10.021357
aF76.3040179
ag2
ag3
aa(lp428
F9.963417999999999
aF76.243073
ag2
ag3
aa(lp429
F9.7462615
aF76.3955603
ag2
ag3
aa(lp430
F10.0317483
aF76.30872819999999
ag2
ag3
aa(lp431
F9.939658999999999
aF76.326099
ag2
ag3
aa(lp432
F9.9400759
aF76.2959719
ag2
ag3
aa(lp433
F10.008716
aF76.311874
ag2
ag3
aa(lp434
F10.191692
aF76.386389
ag2
ag3
aa(lp435
F9.968786999999999
aF76.30472600000002
ag2
ag3
aa(lp436
F10.007618
aF76.35676099999999
ag2
ag3
aa(lp437
F9.9399674
aF76.33072469999999
ag2
ag3
aa(lp438
F10.08535
aF77.061409
ag2
ag3
aa(lp439
F9.782398
aF76.964306
ag18
ag3
aa(lp440
F10.1937813
aF76.527079
ag18
ag3
aa(lp441
F9.9606891
aF76.3422202
ag18
ag3
aa(lp442
F10.1542667
aF76.3117213
ag18
ag3
aa(lp443
F10.1424607
aF77.03590109999999
ag18
ag3
aa(lp444
F10.4310428
aF76.4910093
ag18
ag3
aa(lp445
F10.444963
aF76.81281
ag18
ag3
aa(lp446
F9.9901058
aF76.31594900000002
aS'stay'
p447
ag3
aa(lp448
F10.049072
aF77.078968
ag447
ag3
aa(lp449
F9.933721
aF76.316442
ag447
ag3
aa(lp450
F9.9666071
aF76.2417526
ag447
ag3
aa(lp451
F10.021617
aF76.30743
ag447
ag3
aa(lp452
F9.9671031
aF76.30735250000001
ag447
ag3
aa(lp453
F9.888713300000001
aF76.31643609999999
ag447
ag3
aa(lp454
F10.1517834
aF76.39295810000002
ag447
ag3
aa(lp455
F10.160719
aF76.39070699999999
ag447
ag3
aa(lp456
F9.963596
aF76.245398
ag447
ag3
aa(lp457
F9.9700328
aF76.2840338
ag447
ag3
aa(lp458
F9.9705987
aF76.2852877
ag447
ag3
aa(lp459
F9.9592898
aF76.2691629
ag447
ag3
aa(lp460
F9.9904698
aF76.2851182
ag447
ag3
aa(lp461
F9.9764788
aF76.2771904
ag447
ag3
aa(lp462
F9.966909600000001
aF76.2872517
ag447
ag3
aa(lp463
F9.963028
aF76.23746799999999
ag447
ag3
aa(lp464
F10.1597902
aF76.3834897
ag447
ag3
aa(lp465
F10.1658218
aF76.3962865
ag447
ag3
aa(lp466
F10.160984
aF76.389055
ag447
ag3
aa(lp467
F10.012265
aF76.341624
ag299
ag3
aa(lp468
F10.112599
aF76.35659
ag299
ag3
aa(lp469
F9.9951888
aF76.3186272
ag299
ag3
aa(lp470
F10.1174137
aF76.30993409999999
ag299
ag3
aa(lp471
F10.0027341
aF76.3060084
ag299
ag3
aa(lp472
F9.967107100000002
aF76.28269929999999
ag299
ag3
aa(lp473
F10.012584
aF76.32638299999999
ag299
ag3
aa(lp474
F10.0337015
aF76.3169065
ag299
ag3
aa(lp475
F10.0373127
aF76.3149296
ag299
ag3
aa(lp476
F9.980819
aF76.32176199999999
ag299
ag3
aa(lp477
F10.033205
aF76.313347
ag299
ag3
aa(lp478
F9.978260899999999
aF76.317558
ag299
ag3
aa(lp479
F10.001827
aF76.304751
ag299
ag3
aa(lp480
F10.0019245
aF76.3013443
ag299
ag3
aa(lp481
F9.972454899999997
aF76.3042676
ag299
ag3
aa(lp482
F9.960876199999998
aF76.28885190000001
ag299
ag3
aa(lp483
F9.958462999999998
aF76.288966
ag299
ag3
aa(lp484
F10.012265
aF76.341624
ag299
ag3
aa(lp485
F9.979516700000001
aF76.47135949999999
ag299
ag3
aa(lp486
F10.112599
aF76.35659
ag299
ag3
aa(lp487
F10.113961
aF76.3465758
ag299
ag3
aa(lp488
F9.923565199999999
aF76.3568094
ag299
ag3
aa(lp489
F10.0133108
aF76.3309562
ag299
ag3
aa(lp490
F9.958534599999998
aF76.3416633
ag299
ag3
aa(lp491
F9.998993400000002
aF76.3143647
ag299
ag3
aa(lp492
F10.0258971
aF76.30678309999999
ag299
ag3
aa(lp493
F10.0027341
aF76.3060084
ag299
ag3
aa(lp494
F10.0003572
aF76.302402
ag299
ag3
aa(lp495
F9.936488599999999
aF76.3170483
ag299
ag3
aa(lp496
F9.9903547
aF76.28590310000001
ag299
ag3
aa(lp497
F9.9848774
aF76.2835391
ag299
ag3
aa(lp498
F9.9492739
aF76.2919495
ag299
ag3
aa(lp499
F9.973702099999999
aF76.28070939999999
ag299
ag3
aa(lp500
F9.9316617
aF76.2662821
ag299
ag3
aa(lp501
F9.9358912
aF76.2611608
ag299
ag3
aa(lp502
F9.9792092
aF76.58154189999999
ag299
ag3
aa(lp503
F9.9810987
aF76.4083819
ag299
ag3
aa.